; Function Attrs: nounwind uwtable
define internal i32 @proxy_setattr(ptr noundef readonly captures(none) %0, ptr noundef %1, ptr noundef %2) #0 {
  %4 = getelementptr i8, ptr %0, i64 16
  %.val = load ptr, ptr %4, align 8, !tbaa !37
  %5 = icmp eq ptr %.val, @_Py_NoneStruct
  br i1 %5, label %proxy_check_ref.exit, label %6

6:                                                ; preds = %3
  %.val.i.i = load i32, ptr %.val, align 8, !tbaa !42
  %.not.i.i = icmp eq i32 %.val.i.i, 0
  br i1 %.not.i.i, label %proxy_check_ref.exit, label %7

7:                                                ; preds = %6
  %8 = icmp slt i32 %.val.i.i, 0
  br i1 %8, label %_PyWeakref_GET_REF.exit, label %9

9:                                                ; preds = %7
  %10 = add nuw i32 %.val.i.i, 1
  store i32 %10, ptr %.val, align 8, !tbaa !42
  br label %_PyWeakref_GET_REF.exit

proxy_check_ref.exit:                             ; preds = %6, %3
  %11 = load ptr, ptr @PyExc_ReferenceError, align 8, !tbaa !45
  tail call void @PyErr_SetString(ptr noundef %11, ptr noundef nonnull @.str.21) #6
  br label %Py_DECREF.exit

_PyWeakref_GET_REF.exit:                          ; preds = %9, %7
  %12 = tail call i32 @PyObject_SetAttr(ptr noundef nonnull %.val, ptr noundef %1, ptr noundef %2) #6
  %13 = load i32, ptr %.val, align 8, !tbaa !42
  %.not.i = icmp sgt i32 %13, -1
  br i1 %.not.i, label %14, label %Py_DECREF.exit

14:                                               ; preds = %_PyWeakref_GET_REF.exit
  %15 = add nsw i32 %13, -1
  store i32 %15, ptr %.val, align 8, !tbaa !42
  %16 = icmp eq i32 %15, 0
  br i1 %16, label %17, label %Py_DECREF.exit

17:                                               ; preds = %14
  tail call void @_Py_Dealloc(ptr noundef nonnull %.val) #6
  br label %Py_DECREF.exit

Py_DECREF.exit:                                   ; preds = %17, %14, %_PyWeakref_GET_REF.exit, %proxy_check_ref.exit
  %.0 = phi i32 [ -1, %proxy_check_ref.exit ], [ %12, %_PyWeakref_GET_REF.exit ], [ %12, %14 ], [ %12, %17 ]
  ret i32 %.0
}